target datalayout = "e-m:e-p270:32:32-p271:32:32-p272:64:64-i64:64-i128:128-f80:128-n8:16:32:64-S128"
target triple = "x86_64-pc-linux-gnu"

%"class.std::vector.9" = type { %"struct.std::_Vector_base.10" }
%"struct.std::_Vector_base.10" = type { %"struct.std::_Vector_base<std::__cxx11::basic_string<char>, std::allocator<std::__cxx11::basic_string<char>>>::_Vector_impl" }
%"struct.std::_Vector_base<std::__cxx11::basic_string<char>, std::allocator<std::__cxx11::basic_string<char>>>::_Vector_impl" = type { %"struct.std::_Vector_base<std::__cxx11::basic_string<char>, std::allocator<std::__cxx11::basic_string<char>>>::_Vector_impl_data" }
%"struct.std::_Vector_base<std::__cxx11::basic_string<char>, std::allocator<std::__cxx11::basic_string<char>>>::_Vector_impl_data" = type { ptr, ptr, ptr }

; Function Attrs: mustprogress uwtable
define internal void @_ZN12_GLOBAL__N_117TargetSourcesImpl22HandleInterfaceContentEP8cmTargetRKSt6vectorINSt7__cxx1112basic_stringIcSt11char_traitsIcESaIcEEESaIS9_EEbb(ptr noundef nonnull align 8 dereferenceable(64) %0, ptr noundef %1, ptr noundef nonnull align 8 dereferenceable(24) %2, i1 noundef zeroext %3, i1 noundef zeroext %4) unnamed_addr #6 align 2 personality ptr @__gxx_personality_v0 {
  %6 = alloca ptr, align 8
  %7 = alloca ptr, align 8
  %8 = alloca ptr, align 8
  %9 = alloca i8, align 1
  %10 = alloca i8, align 1
  %11 = alloca %"class.std::vector.9", align 8
  %12 = alloca ptr, align 8
  %13 = alloca i32, align 4
  store ptr %0, ptr %6, align 8
  store ptr %1, ptr %7, align 8
  store ptr %2, ptr %8, align 8
  %14 = zext i1 %3 to i8
  store i8 %14, ptr %9, align 1
  %15 = zext i1 %4 to i8
  store i8 %15, ptr %10, align 1
  %16 = load ptr, ptr %6, align 8
  %17 = load ptr, ptr %7, align 8
  %18 = load ptr, ptr %7, align 8
  %19 = load ptr, ptr %8, align 8
  call void @_ZN12_GLOBAL__N_117TargetSourcesImpl24ConvertToAbsoluteContentEP8cmTargetRKSt6vectorINSt7__cxx1112basic_stringIcSt11char_traitsIcESaIcEEESaIS9_EENS0_11IsInterfaceENS0_12CheckCMP0076E(ptr dead_on_unwind writable sret(%"class.std::vector.9") align 8 %11, ptr noundef nonnull align 8 dereferenceable(64) %16, ptr noundef %18, ptr noundef nonnull align 8 dereferenceable(24) %19, i32 noundef 0, i32 noundef 0)
  %20 = load i8, ptr %9, align 1
  %21 = trunc i8 %20 to i1
  %22 = load i8, ptr %10, align 1
  %23 = trunc i8 %22 to i1
  invoke void @_ZN23cmTargetPropCommandBase22HandleInterfaceContentEP8cmTargetRKSt6vectorINSt7__cxx1112basic_stringIcSt11char_traitsIcESaIcEEESaIS8_EEbb(ptr noundef nonnull align 8 dereferenceable(64) %16, ptr noundef %17, ptr noundef nonnull align 8 dereferenceable(24) %11, i1 noundef zeroext %21, i1 noundef zeroext %23)
          to label %24 unwind label %25

24:                                               ; preds = %5
  call void @_ZNSt6vectorINSt7__cxx1112basic_stringIcSt11char_traitsIcESaIcEEESaIS5_EED2Ev(ptr noundef nonnull align 8 dereferenceable(24) %11) #3
  ret void

25:                                               ; preds = %5
  %26 = landingpad { ptr, i32 }
          cleanup
  %27 = extractvalue { ptr, i32 } %26, 0
  store ptr %27, ptr %12, align 8
  %28 = extractvalue { ptr, i32 } %26, 1
  store i32 %28, ptr %13, align 4
  call void @_ZNSt6vectorINSt7__cxx1112basic_stringIcSt11char_traitsIcESaIcEEESaIS5_EED2Ev(ptr noundef nonnull align 8 dereferenceable(24) %11) #3
  br label %29

29:                                               ; preds = %25
  %30 = load ptr, ptr %12, align 8
  %31 = load i32, ptr %13, align 4
  %32 = insertvalue { ptr, i32 } poison, ptr %30, 0
  %33 = insertvalue { ptr, i32 } %32, i32 %31, 1
  resume { ptr, i32 } %33
}