; Function Attrs: mustprogress uwtable
define internal void @_ZN12_GLOBAL__N_117TargetSourcesImpl22HandleInterfaceContentEP8cmTargetRKSt6vectorINSt7__cxx1112basic_stringIcSt11char_traitsIcESaIcEEESaIS9_EEbb(ptr noundef nonnull align 8 dereferenceable(64) %0, ptr noundef %1, ptr noundef nonnull align 8 dereferenceable(24) %2, i1 noundef zeroext %3, i1 noundef zeroext %4) unnamed_addr #5 align 2 personality ptr @__gxx_personality_v0 {
  %6 = alloca %"class.std::vector.9", align 8
  call fastcc void @_ZN12_GLOBAL__N_117TargetSourcesImpl24ConvertToAbsoluteContentEP8cmTargetRKSt6vectorINSt7__cxx1112basic_stringIcSt11char_traitsIcESaIcEEESaIS9_EENS0_11IsInterfaceENS0_12CheckCMP0076E(ptr dead_on_unwind noalias nonnull writable align 8 %6, ptr noundef nonnull align 8 dereferenceable(64) %0, ptr noundef %1, ptr noundef nonnull align 8 dereferenceable(24) %2, i32 noundef 0, i32 noundef 0)
  invoke void @_ZN23cmTargetPropCommandBase22HandleInterfaceContentEP8cmTargetRKSt6vectorINSt7__cxx1112basic_stringIcSt11char_traitsIcESaIcEEESaIS8_EEbb(ptr noundef nonnull align 8 dereferenceable(64) %0, ptr noundef %1, ptr noundef nonnull align 8 dereferenceable(24) %6, i1 noundef zeroext %3, i1 noundef zeroext %4)
          to label %7 unwind label %14

7:                                                ; preds = %5
  %8 = load ptr, ptr %6, align 8
  %9 = getelementptr inbounds i8, ptr %6, i64 8
  %10 = load ptr, ptr %9, align 8
  %.not4.i.i.i.i = icmp eq ptr %8, %10
  br i1 %.not4.i.i.i.i, label %_ZSt8_DestroyIPNSt7__cxx1112basic_stringIcSt11char_traitsIcESaIcEEES5_EvT_S7_RSaIT0_E.exit.i, label %.lr.ph.i.i.i.i

.lr.ph.i.i.i.i:                                   ; preds = %7, %.lr.ph.i.i.i.i
  %.05.i.i.i.i = phi ptr [ %11, %.lr.ph.i.i.i.i ], [ %8, %7 ]
  call void @_ZNSt7__cxx1112basic_stringIcSt11char_traitsIcESaIcEED1Ev(ptr noundef nonnull align 8 dereferenceable(32) %.05.i.i.i.i) #18
  %11 = getelementptr inbounds i8, ptr %.05.i.i.i.i, i64 32
  %.not.i.i.i.i = icmp eq ptr %11, %10
  br i1 %.not.i.i.i.i, label %_ZSt8_DestroyIPNSt7__cxx1112basic_stringIcSt11char_traitsIcESaIcEEES5_EvT_S7_RSaIT0_E.exitthread-pre-split.i, label %.lr.ph.i.i.i.i, !llvm.loop !10

_ZSt8_DestroyIPNSt7__cxx1112basic_stringIcSt11char_traitsIcESaIcEEES5_EvT_S7_RSaIT0_E.exitthread-pre-split.i: ; preds = %.lr.ph.i.i.i.i
  %.pr.i = load ptr, ptr %6, align 8
  br label %_ZSt8_DestroyIPNSt7__cxx1112basic_stringIcSt11char_traitsIcESaIcEEES5_EvT_S7_RSaIT0_E.exit.i

_ZSt8_DestroyIPNSt7__cxx1112basic_stringIcSt11char_traitsIcESaIcEEES5_EvT_S7_RSaIT0_E.exit.i: ; preds = %_ZSt8_DestroyIPNSt7__cxx1112basic_stringIcSt11char_traitsIcESaIcEEES5_EvT_S7_RSaIT0_E.exitthread-pre-split.i, %7
  %12 = phi ptr [ %.pr.i, %_ZSt8_DestroyIPNSt7__cxx1112basic_stringIcSt11char_traitsIcESaIcEEES5_EvT_S7_RSaIT0_E.exitthread-pre-split.i ], [ %8, %7 ]
  %.not.i.i.i = icmp eq ptr %12, null
  br i1 %.not.i.i.i, label %_ZNSt6vectorINSt7__cxx1112basic_stringIcSt11char_traitsIcESaIcEEESaIS5_EED2Ev.exit, label %13

13:                                               ; preds = %_ZSt8_DestroyIPNSt7__cxx1112basic_stringIcSt11char_traitsIcESaIcEEES5_EvT_S7_RSaIT0_E.exit.i
  call void @_ZdlPv(ptr noundef nonnull %12) #21
  br label %_ZNSt6vectorINSt7__cxx1112basic_stringIcSt11char_traitsIcESaIcEEESaIS5_EED2Ev.exit

_ZNSt6vectorINSt7__cxx1112basic_stringIcSt11char_traitsIcESaIcEEESaIS5_EED2Ev.exit: ; preds = %_ZSt8_DestroyIPNSt7__cxx1112basic_stringIcSt11char_traitsIcESaIcEEES5_EvT_S7_RSaIT0_E.exit.i, %13
  ret void

14:                                               ; preds = %5
  %15 = landingpad { ptr, i32 }
          cleanup
  call void @_ZNSt6vectorINSt7__cxx1112basic_stringIcSt11char_traitsIcESaIcEEESaIS5_EED2Ev(ptr noundef nonnull align 8 dereferenceable(24) %6) #18
  resume { ptr, i32 } %15
}